target datalayout = "e-m:e-p270:32:32-p271:32:32-p272:64:64-i64:64-i128:128-f80:128-n8:16:32:64-S128"
target triple = "x86_64-pc-linux-gnu"

%struct._zend_executor_globals = type { %struct._zval_struct, %struct._zval_struct, [32 x ptr], ptr, ptr, %struct._zend_array, %struct._zend_array, ptr, i32, i32, ptr, ptr, ptr, ptr, ptr, ptr, i64, ptr, ptr, i32, i32, i64, i32, i32, i32, i8, i8, %struct.zend_atomic_bool_s, %struct.zend_atomic_bool_s, ptr, i64, ptr, ptr, %struct._zend_array, %struct._zend_array, i32, i8, %struct._zval_struct, %struct._zval_struct, %struct._zend_stack, %struct._zend_stack, %struct._zend_stack, ptr, i32, i32, i64, ptr, ptr, ptr, %struct._zend_objects_store, ptr, ptr, ptr, [3 x %struct._zend_op], ptr, i8, i8, i64, i32, i32, ptr, [16 x %struct._HashTableIterator], ptr, %union._zend_function, %struct._zend_op, %struct._zend_array, i64, %struct.zend_get_gc_buffer, ptr, ptr, ptr, i64, i8, i32, ptr, ptr, i64, %struct._zend_call_stack, i64, i64, [6 x ptr] }
%struct.zend_atomic_bool_s = type { i8 }
%struct._zval_struct = type { %union._zend_value, %union.anon, %union.anon.3 }
%union._zend_value = type { i64 }
%union.anon = type { i32 }
%union.anon.3 = type { i32 }
%struct._zend_stack = type { i32, i32, i32, ptr }
%struct._zend_objects_store = type { ptr, i32, i32, i32 }
%struct._HashTableIterator = type { ptr, i32, i32 }
%union._zend_function = type { %struct._zend_op_array }
%struct._zend_op_array = type { i8, [3 x i8], i32, ptr, ptr, ptr, i32, i32, ptr, ptr, ptr, ptr, i32, i32, i32, i32, ptr, ptr, ptr, ptr, ptr, i32, i32, ptr, ptr, ptr, i32, i32, i32, i32, ptr, ptr, [6 x ptr] }
%struct._zend_op = type { ptr, %union._znode_op, %union._znode_op, %union._znode_op, i32, i32, i8, i8, i8, i8 }
%union._znode_op = type { i32 }
%struct._zend_array = type { %struct._zend_refcounted_h, %union.anon.5, i32, %union.anon.7, i32, i32, i32, i32, i64, ptr }
%struct._zend_refcounted_h = type { i32, %union.anon.4 }
%union.anon.4 = type { i32 }
%union.anon.5 = type { i32 }
%union.anon.7 = type { ptr }
%struct.zend_get_gc_buffer = type { ptr, ptr, ptr }
%struct._zend_call_stack = type { ptr, i64 }
%struct._zend_ssa = type { %struct._zend_cfg, i32, i32, ptr, ptr, ptr, ptr }
%struct._zend_cfg = type { i32, i32, ptr, ptr, ptr, i32 }
%struct._zend_ssa_op = type { i32, i32, i32, i32, i32, i32, i32, i32, i32 }
%struct._zend_ssa_range = type { i64, i64, i8, i8 }
%struct.zend_type = type { ptr, i32 }
%struct._zend_ssa_var_info = type { i32, i8, %struct._zend_ssa_range, ptr }
%struct._zend_class_entry = type { i8, ptr, %union.anon.8, i32, i32, i32, i32, ptr, ptr, ptr, %struct._zend_array, %struct._zend_array, %struct._zend_array, ptr, ptr, ptr, ptr, ptr, ptr, ptr, ptr, ptr, ptr, ptr, ptr, ptr, ptr, ptr, ptr, ptr, ptr, ptr, %union.anon.9, ptr, ptr, ptr, ptr, i32, i32, %union.anon.10, ptr, ptr, ptr, ptr, i32, ptr, ptr, %union.anon.11 }
%union.anon.8 = type { ptr }
%union.anon.9 = type { ptr }
%union.anon.10 = type { ptr }
%union.anon.11 = type { %struct.anon.12 }
%struct.anon.12 = type { ptr, i32, i32 }
%struct._zend_property_info = type { i32, i32, ptr, ptr, ptr, ptr, %struct.zend_type }

@executor_globals = external global %struct._zend_executor_globals, align 8

; Function Attrs: nounwind uwtable
define internal ptr @lookup_prop_info(ptr noundef %0, ptr noundef %1, ptr noundef %2) #0 {
  %4 = alloca ptr, align 8
  %5 = alloca ptr, align 8
  %6 = alloca ptr, align 8
  %7 = alloca ptr, align 8
  %8 = alloca ptr, align 8
  %9 = alloca ptr, align 8
  %10 = alloca ptr, align 8
  %11 = alloca ptr, align 8
  %12 = alloca ptr, align 8
  %13 = alloca ptr, align 8
  store ptr %0, ptr %9, align 8
  store ptr %1, ptr %10, align 8
  store ptr %2, ptr %11, align 8
  %14 = load ptr, ptr %9, align 8
  %15 = getelementptr inbounds %struct._zend_class_entry, ptr %14, i32 0, i32 4
  %16 = load i32, ptr %15, align 4
  %17 = and i32 %16, 8
  %18 = icmp ne i32 %17, 0
  br i1 %18, label %19, label %43

19:                                               ; preds = %3
  %20 = load ptr, ptr %11, align 8
  %21 = icmp ne ptr %20, null
  br i1 %21, label %22, label %28

22:                                               ; preds = %19
  %23 = load ptr, ptr %11, align 8
  %24 = getelementptr inbounds %struct._zend_class_entry, ptr %23, i32 0, i32 4
  %25 = load i32, ptr %24, align 4
  %26 = and i32 %25, 8
  %27 = icmp ne i32 %26, 0
  br i1 %27, label %28, label %43

28:                                               ; preds = %22, %19
  %29 = load ptr, ptr getelementptr inbounds (%struct._zend_executor_globals, ptr @executor_globals, i32 0, i32 18), align 8
  store ptr %29, ptr %13, align 8
  %30 = load ptr, ptr %11, align 8
  store ptr %30, ptr getelementptr inbounds (%struct._zend_executor_globals, ptr @executor_globals, i32 0, i32 18), align 8
  %31 = load ptr, ptr %9, align 8
  %32 = load ptr, ptr %10, align 8
  %33 = call ptr @zend_get_property_info(ptr noundef %31, ptr noundef %32, i32 noundef 1)
  store ptr %33, ptr %12, align 8
  %34 = load ptr, ptr %13, align 8
  store ptr %34, ptr getelementptr inbounds (%struct._zend_executor_globals, ptr @executor_globals, i32 0, i32 18), align 8
  %35 = load ptr, ptr %12, align 8
  %36 = icmp ne ptr %35, null
  br i1 %36, label %37, label %42

37:                                               ; preds = %28
  %38 = load ptr, ptr %12, align 8
  %39 = icmp ne ptr %38, inttoptr (i64 -1 to ptr)
  br i1 %39, label %40, label %42

40:                                               ; preds = %37
  %41 = load ptr, ptr %12, align 8
  store ptr %41, ptr %8, align 8
  br label %81

42:                                               ; preds = %37, %28
  store ptr null, ptr %8, align 8
  br label %81

43:                                               ; preds = %22, %3
  %44 = load ptr, ptr %9, align 8
  %45 = getelementptr inbounds %struct._zend_class_entry, ptr %44, i32 0, i32 11
  %46 = load ptr, ptr %10, align 8
  store ptr %45, ptr %5, align 8
  store ptr %46, ptr %6, align 8
  %47 = load ptr, ptr %5, align 8
  %48 = load ptr, ptr %6, align 8
  %49 = call ptr @zend_hash_find(ptr noundef %47, ptr noundef %48) #11
  store ptr %49, ptr %7, align 8
  %50 = load ptr, ptr %7, align 8
  %51 = icmp ne ptr %50, null
  br i1 %51, label %52, label %58

52:                                               ; preds = %43
  %53 = load ptr, ptr %7, align 8
  %54 = load ptr, ptr %53, align 8
  %55 = icmp ne ptr %54, null
  call void @llvm.assume(i1 %55)
  %56 = load ptr, ptr %7, align 8
  %57 = load ptr, ptr %56, align 8
  store ptr %57, ptr %4, align 8
  br label %59

58:                                               ; preds = %43
  store ptr null, ptr %4, align 8
  br label %59

59:                                               ; preds = %58, %52
  %60 = load ptr, ptr %4, align 8
  store ptr %60, ptr %12, align 8
  %61 = load ptr, ptr %12, align 8
  %62 = icmp ne ptr %61, null
  br i1 %62, label %63, label %80

63:                                               ; preds = %59
  %64 = load ptr, ptr %12, align 8
  %65 = getelementptr inbounds %struct._zend_property_info, ptr %64, i32 0, i32 5
  %66 = load ptr, ptr %65, align 8
  %67 = load ptr, ptr %11, align 8
  %68 = icmp eq ptr %66, %67
  br i1 %68, label %78, label %69

69:                                               ; preds = %63
  %70 = load ptr, ptr %11, align 8
  %71 = icmp ne ptr %70, null
  br i1 %71, label %80, label %72

72:                                               ; preds = %69
  %73 = load ptr, ptr %12, align 8
  %74 = getelementptr inbounds %struct._zend_property_info, ptr %73, i32 0, i32 1
  %75 = load i32, ptr %74, align 4
  %76 = and i32 %75, 1
  %77 = icmp ne i32 %76, 0
  br i1 %77, label %78, label %80

78:                                               ; preds = %72, %63
  %79 = load ptr, ptr %12, align 8
  store ptr %79, ptr %8, align 8
  br label %81

80:                                               ; preds = %72, %69, %59
  store ptr null, ptr %8, align 8
  br label %81

81:                                               ; preds = %80, %78, %42, %40
  %82 = load ptr, ptr %8, align 8
  ret ptr %82
}

; Function Attrs: nounwind uwtable
define internal ptr @zend_fetch_prop_info(ptr noundef %0, ptr noundef %1, ptr noundef %2, ptr noundef %3) #0 {
  %5 = alloca ptr, align 8
  %6 = alloca ptr, align 8
  %7 = alloca ptr, align 8
  %8 = alloca ptr, align 8
  %9 = alloca ptr, align 8
  %10 = alloca ptr, align 8
  store ptr %0, ptr %5, align 8
  store ptr %1, ptr %6, align 8
  store ptr %2, ptr %7, align 8
  store ptr %3, ptr %8, align 8
  store ptr null, ptr %9, align 8
  %11 = load ptr, ptr %7, align 8
  %12 = getelementptr inbounds %struct._zend_op, ptr %11, i32 0, i32 8
  %13 = load i8, ptr %12, align 2
  %14 = zext i8 %13 to i32
  %15 = icmp eq i32 %14, 1
  br i1 %15, label %16, label %94

16:                                               ; preds = %4
  store ptr null, ptr %10, align 8
  %17 = load ptr, ptr %7, align 8
  %18 = getelementptr inbounds %struct._zend_op, ptr %17, i32 0, i32 7
  %19 = load i8, ptr %18, align 1
  %20 = zext i8 %19 to i32
  %21 = icmp eq i32 %20, 0
  br i1 %21, label %22, label %32

22:                                               ; preds = %16
  %23 = load ptr, ptr %5, align 8
  %24 = getelementptr inbounds %struct._zend_op_array, ptr %23, i32 0, i32 2
  %25 = load i32, ptr %24, align 4
  %26 = and i32 %25, 1048576
  %27 = icmp ne i32 %26, 0
  br i1 %27, label %32, label %28

28:                                               ; preds = %22
  %29 = load ptr, ptr %5, align 8
  %30 = getelementptr inbounds %struct._zend_op_array, ptr %29, i32 0, i32 4
  %31 = load ptr, ptr %30, align 8
  store ptr %31, ptr %10, align 8
  br label %49

32:                                               ; preds = %22, %16
  %33 = load ptr, ptr %8, align 8
  %34 = getelementptr inbounds %struct._zend_ssa_op, ptr %33, i32 0, i32 0
  %35 = load i32, ptr %34, align 4
  %36 = icmp sge i32 %35, 0
  br i1 %36, label %37, label %48

37:                                               ; preds = %32
  %38 = load ptr, ptr %6, align 8
  %39 = getelementptr inbounds %struct._zend_ssa, ptr %38, i32 0, i32 6
  %40 = load ptr, ptr %39, align 8
  %41 = load ptr, ptr %8, align 8
  %42 = getelementptr inbounds %struct._zend_ssa_op, ptr %41, i32 0, i32 0
  %43 = load i32, ptr %42, align 4
  %44 = sext i32 %43 to i64
  %45 = getelementptr inbounds %struct._zend_ssa_var_info, ptr %40, i64 %44
  %46 = getelementptr inbounds %struct._zend_ssa_var_info, ptr %45, i32 0, i32 3
  %47 = load ptr, ptr %46, align 8
  store ptr %47, ptr %10, align 8
  br label %48

48:                                               ; preds = %37, %32
  br label %49

49:                                               ; preds = %48, %28
  %50 = load ptr, ptr %10, align 8
  %51 = icmp ne ptr %50, null
  br i1 %51, label %52, label %93

52:                                               ; preds = %49
  %53 = load ptr, ptr %10, align 8
  %54 = load ptr, ptr %5, align 8
  %55 = getelementptr inbounds %struct._zend_op_array, ptr %54, i32 0, i32 2
  %56 = load i32, ptr %55, align 4
  %57 = and i32 %56, 33554432
  %58 = icmp ne i32 %57, 0
  br i1 %58, label %59, label %66

59:                                               ; preds = %52
  %60 = load ptr, ptr %7, align 8
  %61 = load ptr, ptr %7, align 8
  %62 = getelementptr inbounds %struct._zend_op, ptr %61, i32 0, i32 2
  %63 = load i32, ptr %62, align 4
  %64 = sext i32 %63 to i64
  %65 = getelementptr inbounds i8, ptr %60, i64 %64
  br label %75

66:                                               ; preds = %52
  %67 = load ptr, ptr %5, align 8
  %68 = getelementptr inbounds %struct._zend_op_array, ptr %67, i32 0, i32 30
  %69 = load ptr, ptr %68, align 8
  %70 = load ptr, ptr %7, align 8
  %71 = getelementptr inbounds %struct._zend_op, ptr %70, i32 0, i32 2
  %72 = load i32, ptr %71, align 4
  %73 = zext i32 %72 to i64
  %74 = getelementptr inbounds %struct._zval_struct, ptr %69, i64 %73
  br label %75

75:                                               ; preds = %66, %59
  %76 = phi ptr [ %65, %59 ], [ %74, %66 ]
  %77 = getelementptr inbounds %struct._zval_struct, ptr %76, i32 0, i32 0
  %78 = load ptr, ptr %77, align 8
  %79 = load ptr, ptr %5, align 8
  %80 = getelementptr inbounds %struct._zend_op_array, ptr %79, i32 0, i32 4
  %81 = load ptr, ptr %80, align 8
  %82 = call ptr @lookup_prop_info(ptr noundef %53, ptr noundef %78, ptr noundef %81)
  store ptr %82, ptr %9, align 8
  %83 = load ptr, ptr %9, align 8
  %84 = icmp ne ptr %83, null
  br i1 %84, label %85, label %92

85:                                               ; preds = %75
  %86 = load ptr, ptr %9, align 8
  %87 = getelementptr inbounds %struct._zend_property_info, ptr %86, i32 0, i32 1
  %88 = load i32, ptr %87, align 4
  %89 = and i32 %88, 16
  %90 = icmp ne i32 %89, 0
  br i1 %90, label %91, label %92

91:                                               ; preds = %85
  store ptr null, ptr %9, align 8
  br label %92

92:                                               ; preds = %91, %85, %75
  br label %93

93:                                               ; preds = %92, %49
  br label %94

94:                                               ; preds = %93, %4
  %95 = load ptr, ptr %9, align 8
  ret ptr %95
}