; Function Attrs: nounwind uwtable
define internal fastcc ptr @zend_fetch_prop_info(ptr nocapture noundef readonly %0, ptr nocapture noundef readonly %1, ptr nocapture noundef readonly %2, ptr nocapture noundef readonly %3) unnamed_addr #0 {
  %5 = getelementptr inbounds i8, ptr %2, i64 30
  %6 = load i8, ptr %5, align 2
  %7 = icmp eq i8 %6, 1
  br i1 %7, label %8, label %.thread

8:                                                ; preds = %4
  %9 = getelementptr inbounds i8, ptr %2, i64 29
  %10 = load i8, ptr %9, align 1
  %11 = icmp eq i8 %10, 0
  br i1 %11, label %12, label %18

12:                                               ; preds = %8
  %13 = getelementptr inbounds i8, ptr %0, i64 4
  %14 = load i32, ptr %13, align 4
  %15 = and i32 %14, 1048576
  %.not = icmp eq i32 %15, 0
  br i1 %.not, label %16, label %18

16:                                               ; preds = %12
  %17 = getelementptr inbounds i8, ptr %0, i64 16
  br label %26

18:                                               ; preds = %12, %8
  %19 = load i32, ptr %3, align 4
  %20 = icmp sgt i32 %19, -1
  br i1 %20, label %21, label %.thread

21:                                               ; preds = %18
  %22 = getelementptr inbounds i8, ptr %1, i64 72
  %23 = load ptr, ptr %22, align 8
  %24 = zext nneg i32 %19 to i64
  %25 = getelementptr inbounds %struct._zend_ssa_var_info, ptr %23, i64 %24, i32 3
  br label %26

26:                                               ; preds = %21, %16
  %.0.in = phi ptr [ %25, %21 ], [ %17, %16 ]
  %.0 = load ptr, ptr %.0.in, align 8
  %.not21 = icmp eq ptr %.0, null
  br i1 %.not21, label %.thread, label %27

27:                                               ; preds = %26
  %28 = getelementptr inbounds i8, ptr %0, i64 4
  %29 = load i32, ptr %28, align 4
  %30 = and i32 %29, 33554432
  %.not22 = icmp eq i32 %30, 0
  br i1 %.not22, label %36, label %31

31:                                               ; preds = %27
  %32 = getelementptr inbounds i8, ptr %2, i64 12
  %33 = load i32, ptr %32, align 4
  %34 = sext i32 %33 to i64
  %35 = getelementptr inbounds i8, ptr %2, i64 %34
  br label %43

36:                                               ; preds = %27
  %37 = getelementptr inbounds i8, ptr %0, i64 176
  %38 = load ptr, ptr %37, align 8
  %39 = getelementptr inbounds i8, ptr %2, i64 12
  %40 = load i32, ptr %39, align 4
  %41 = zext i32 %40 to i64
  %42 = getelementptr inbounds %struct._zval_struct, ptr %38, i64 %41
  br label %43

43:                                               ; preds = %36, %31
  %44 = phi ptr [ %35, %31 ], [ %42, %36 ]
  %45 = load ptr, ptr %44, align 8
  %46 = getelementptr inbounds i8, ptr %0, i64 16
  %47 = load ptr, ptr %46, align 8
  %48 = getelementptr inbounds i8, ptr %.0, i64 28
  %49 = load i32, ptr %48, align 4
  %50 = and i32 %49, 8
  %.not.i = icmp eq i32 %50, 0
  br i1 %.not.i, label %59, label %51

51:                                               ; preds = %43
  %.not30.i = icmp eq ptr %47, null
  br i1 %.not30.i, label %56, label %52

52:                                               ; preds = %51
  %53 = getelementptr inbounds i8, ptr %47, i64 28
  %54 = load i32, ptr %53, align 4
  %55 = and i32 %54, 8
  %.not31.i = icmp eq i32 %55, 0
  br i1 %.not31.i, label %59, label %56

56:                                               ; preds = %52, %51
  %57 = load ptr, ptr getelementptr inbounds (%struct._zend_executor_globals, ptr @executor_globals, i64 0, i32 18), align 8
  store ptr %47, ptr getelementptr inbounds (%struct._zend_executor_globals, ptr @executor_globals, i64 0, i32 18), align 8
  %58 = tail call ptr @zend_get_property_info(ptr noundef nonnull %.0, ptr noundef %45, i32 noundef 1) #19
  store ptr %57, ptr getelementptr inbounds (%struct._zend_executor_globals, ptr @executor_globals, i64 0, i32 18), align 8
  %magicptr.i = ptrtoint ptr %58 to i64
  switch i64 %magicptr.i, label %lookup_prop_info.exit.thread30 [
    i64 -1, label %.thread
    i64 0, label %.thread
  ]

59:                                               ; preds = %52, %43
  %60 = getelementptr inbounds i8, ptr %.0, i64 120
  %61 = tail call ptr @zend_hash_find(ptr noundef nonnull %60, ptr noundef %45) #19
  %.not32.i = icmp eq ptr %61, null
  br i1 %.not32.i, label %.thread, label %62

62:                                               ; preds = %59
  %63 = load ptr, ptr %61, align 8, !nonnull !5, !noundef !5
  %64 = getelementptr inbounds i8, ptr %63, i64 32
  %65 = load ptr, ptr %64, align 8
  %66 = icmp eq ptr %65, %47
  br i1 %66, label %lookup_prop_info.exit.thread30, label %67

67:                                               ; preds = %62
  %.not34.i = icmp eq ptr %47, null
  br i1 %.not34.i, label %68, label %.thread

68:                                               ; preds = %67
  %69 = getelementptr inbounds i8, ptr %63, i64 4
  %70 = load i32, ptr %69, align 4
  %71 = and i32 %70, 1
  %.not35.i = icmp eq i32 %71, 0
  br i1 %.not35.i, label %.thread, label %lookup_prop_info.exit.thread30

lookup_prop_info.exit.thread30:                   ; preds = %56, %62, %68
  %.026.i33 = phi ptr [ %63, %68 ], [ %63, %62 ], [ %58, %56 ]
  %72 = getelementptr inbounds i8, ptr %.026.i33, i64 4
  %73 = load i32, ptr %72, align 4
  %74 = and i32 %73, 16
  %.not24 = icmp eq i32 %74, 0
  %spec.store.select = select i1 %.not24, ptr %.026.i33, ptr null
  br label %.thread

.thread:                                          ; preds = %59, %67, %68, %56, %56, %18, %lookup_prop_info.exit.thread30, %26, %4
  %.018 = phi ptr [ %spec.store.select, %lookup_prop_info.exit.thread30 ], [ null, %26 ], [ null, %4 ], [ null, %18 ], [ null, %56 ], [ null, %56 ], [ null, %68 ], [ null, %67 ], [ null, %59 ]
  ret ptr %.018
}